target datalayout = "e-m:e-p270:32:32-p271:32:32-p272:64:64-i64:64-i128:128-f80:128-n8:16:32:64-S128"
target triple = "x86_64-pc-linux-gnu"

%struct.FLAC__StreamMetadata = type { i32, i32, i32, %union.anon }
%union.anon = type { %struct.FLAC__StreamMetadata_CueSheet }
%struct.FLAC__StreamMetadata_CueSheet = type { [129 x i8], i64, i32, i32, ptr }
%struct.FLAC__StreamMetadata_VorbisComment = type { %struct.FLAC__StreamMetadata_VorbisComment_Entry, i32, ptr }
%struct.FLAC__StreamMetadata_VorbisComment_Entry = type { i32, ptr }

; Function Attrs: nounwind sspstrong uwtable
define i32 @FLAC__metadata_object_vorbiscomment_entry_matches(i32 %0, ptr %1, ptr noundef %2, i32 noundef %3) #0 {
  %5 = alloca %struct.FLAC__StreamMetadata_VorbisComment_Entry, align 8
  %6 = alloca ptr, align 8
  %7 = alloca i32, align 4
  %8 = alloca ptr, align 8
  %9 = getelementptr inbounds nuw { i32, ptr }, ptr %5, i32 0, i32 0
  store i32 %0, ptr %9, align 8
  %10 = getelementptr inbounds nuw { i32, ptr }, ptr %5, i32 0, i32 1
  store ptr %1, ptr %10, align 8
  store ptr %2, ptr %6, align 8, !tbaa !14
  store i32 %3, ptr %7, align 4, !tbaa !3
  call void @llvm.lifetime.start.p0(i64 8, ptr %8) #12
  %11 = getelementptr inbounds nuw %struct.FLAC__StreamMetadata_VorbisComment_Entry, ptr %5, i32 0, i32 1
  %12 = load ptr, ptr %11, align 8, !tbaa !29
  %13 = getelementptr inbounds nuw %struct.FLAC__StreamMetadata_VorbisComment_Entry, ptr %5, i32 0, i32 0
  %14 = load i32, ptr %13, align 8, !tbaa !19
  %15 = zext i32 %14 to i64
  %16 = call ptr @memchr(ptr noundef %12, i32 noundef 61, i64 noundef %15) #14
  store ptr %16, ptr %8, align 8, !tbaa !14
  %17 = load ptr, ptr %8, align 8, !tbaa !14
  %18 = icmp ne ptr %17, null
  br i1 %18, label %19, label %37

19:                                               ; preds = %4
  %20 = load ptr, ptr %8, align 8, !tbaa !14
  %21 = getelementptr inbounds nuw %struct.FLAC__StreamMetadata_VorbisComment_Entry, ptr %5, i32 0, i32 1
  %22 = load ptr, ptr %21, align 8, !tbaa !29
  %23 = ptrtoint ptr %20 to i64
  %24 = ptrtoint ptr %22 to i64
  %25 = sub i64 %23, %24
  %26 = trunc i64 %25 to i32
  %27 = load i32, ptr %7, align 4, !tbaa !3
  %28 = icmp eq i32 %26, %27
  br i1 %28, label %29, label %37

29:                                               ; preds = %19
  %30 = load ptr, ptr %6, align 8, !tbaa !14
  %31 = getelementptr inbounds nuw %struct.FLAC__StreamMetadata_VorbisComment_Entry, ptr %5, i32 0, i32 1
  %32 = load ptr, ptr %31, align 8, !tbaa !29
  %33 = load i32, ptr %7, align 4, !tbaa !3
  %34 = zext i32 %33 to i64
  %35 = call i32 @strncasecmp(ptr noundef %30, ptr noundef %32, i64 noundef %34) #14
  %36 = icmp eq i32 %35, 0
  br label %37

37:                                               ; preds = %29, %19, %4
  %38 = phi i1 [ false, %19 ], [ false, %4 ], [ %36, %29 ]
  %39 = zext i1 %38 to i32
  call void @llvm.lifetime.end.p0(i64 8, ptr %8) #12
  ret i32 %39
}

; Function Attrs: nounwind sspstrong uwtable
define internal i32 @vorbiscomment_find_entry_from_(ptr noundef %0, i32 noundef %1, ptr noundef %2, i32 noundef %3) #0 {
  %5 = alloca i32, align 4
  %6 = alloca ptr, align 8
  %7 = alloca i32, align 4
  %8 = alloca ptr, align 8
  %9 = alloca i32, align 4
  %10 = alloca i32, align 4
  %11 = alloca i32, align 4
  store ptr %0, ptr %6, align 8, !tbaa !7
  store i32 %1, ptr %7, align 4, !tbaa !3
  store ptr %2, ptr %8, align 8, !tbaa !14
  store i32 %3, ptr %9, align 4, !tbaa !3
  call void @llvm.lifetime.start.p0(i64 4, ptr %10) #12
  %12 = load i32, ptr %7, align 4, !tbaa !3
  store i32 %12, ptr %10, align 4, !tbaa !3
  br label %13

13:                                               ; preds = %39, %4
  %14 = load i32, ptr %10, align 4, !tbaa !3
  %15 = load ptr, ptr %6, align 8, !tbaa !7
  %16 = getelementptr inbounds nuw %struct.FLAC__StreamMetadata, ptr %15, i32 0, i32 3
  %17 = getelementptr inbounds nuw %struct.FLAC__StreamMetadata_VorbisComment, ptr %16, i32 0, i32 1
  %18 = load i32, ptr %17, align 8, !tbaa !16
  %19 = icmp ult i32 %14, %18
  br i1 %19, label %20, label %42

20:                                               ; preds = %13
  %21 = load ptr, ptr %6, align 8, !tbaa !7
  %22 = getelementptr inbounds nuw %struct.FLAC__StreamMetadata, ptr %21, i32 0, i32 3
  %23 = getelementptr inbounds nuw %struct.FLAC__StreamMetadata_VorbisComment, ptr %22, i32 0, i32 2
  %24 = load ptr, ptr %23, align 8, !tbaa !16
  %25 = load i32, ptr %10, align 4, !tbaa !3
  %26 = zext i32 %25 to i64
  %27 = getelementptr inbounds nuw %struct.FLAC__StreamMetadata_VorbisComment_Entry, ptr %24, i64 %26
  %28 = load ptr, ptr %8, align 8, !tbaa !14
  %29 = load i32, ptr %9, align 4, !tbaa !3
  %30 = getelementptr inbounds nuw { i32, ptr }, ptr %27, i32 0, i32 0
  %31 = load i32, ptr %30, align 8
  %32 = getelementptr inbounds nuw { i32, ptr }, ptr %27, i32 0, i32 1
  %33 = load ptr, ptr %32, align 8
  %34 = call i32 @FLAC__metadata_object_vorbiscomment_entry_matches(i32 %31, ptr %33, ptr noundef %28, i32 noundef %29)
  %35 = icmp ne i32 %34, 0
  br i1 %35, label %36, label %38

36:                                               ; preds = %20
  %37 = load i32, ptr %10, align 4, !tbaa !3
  store i32 %37, ptr %5, align 4
  store i32 1, ptr %11, align 4
  br label %43

38:                                               ; preds = %20
  br label %39

39:                                               ; preds = %38
  %40 = load i32, ptr %10, align 4, !tbaa !3
  %41 = add i32 %40, 1
  store i32 %41, ptr %10, align 4, !tbaa !3
  br label %13, !llvm.loop !100

42:                                               ; preds = %13
  store i32 -1, ptr %5, align 4
  store i32 1, ptr %11, align 4
  br label %43

43:                                               ; preds = %42, %36
  call void @llvm.lifetime.end.p0(i64 4, ptr %10) #12
  %44 = load i32, ptr %5, align 4
  ret i32 %44
}

; Function Attrs: nounwind sspstrong uwtable
define i32 @FLAC__metadata_object_vorbiscomment_find_entry_from(ptr noundef %0, i32 noundef %1, ptr noundef %2) #0 {
  %4 = alloca ptr, align 8
  %5 = alloca i32, align 4
  %6 = alloca ptr, align 8
  store ptr %0, ptr %4, align 8, !tbaa !7
  store i32 %1, ptr %5, align 4, !tbaa !3
  store ptr %2, ptr %6, align 8, !tbaa !14
  %7 = load ptr, ptr %4, align 8, !tbaa !7
  %8 = load i32, ptr %5, align 4, !tbaa !3
  %9 = load ptr, ptr %6, align 8, !tbaa !14
  %10 = load ptr, ptr %6, align 8, !tbaa !14
  %11 = call i64 @strlen(ptr noundef %10) #14
  %12 = trunc i64 %11 to i32
  %13 = call i32 @vorbiscomment_find_entry_from_(ptr noundef %7, i32 noundef %8, ptr noundef %9, i32 noundef %12)
  ret i32 %13
}