; Function Attrs: nofree nounwind sspstrong memory(read) uwtable
define i32 @FLAC__metadata_object_vorbiscomment_find_entry_from(ptr noundef readonly captures(none) %0, i32 noundef %1, ptr noundef readonly captures(none) %2) local_unnamed_addr #16 {
  %4 = tail call i64 @strlen(ptr noundef nonnull dereferenceable(1) %2) #29
  %5 = trunc i64 %4 to i32
  %6 = and i64 %4, 4294967295
  %7 = getelementptr inbounds nuw i8, ptr %0, i64 32
  %8 = load i32, ptr %7, align 8, !tbaa !13
  %9 = icmp ult i32 %1, %8
  br i1 %9, label %.lr.ph.i, label %vorbiscomment_find_entry_from_.exit

.lr.ph.i:                                         ; preds = %3
  %10 = getelementptr inbounds nuw i8, ptr %0, i64 40
  %11 = load ptr, ptr %10, align 8, !tbaa !13
  %12 = zext i32 %1 to i64
  br label %13

13:                                               ; preds = %FLAC__metadata_object_vorbiscomment_entry_matches.exit.thread.i, %.lr.ph.i
  %indvars.iv.i = phi i64 [ %12, %.lr.ph.i ], [ %indvars.iv.next.i, %FLAC__metadata_object_vorbiscomment_entry_matches.exit.thread.i ]
  %14 = getelementptr inbounds nuw %struct.FLAC__StreamMetadata_VorbisComment_Entry, ptr %11, i64 %indvars.iv.i
  %15 = load i32, ptr %14, align 8
  %16 = getelementptr inbounds nuw i8, ptr %14, i64 8
  %17 = load ptr, ptr %16, align 8
  %18 = zext i32 %15 to i64
  %19 = tail call ptr @memchr(ptr noundef %17, i32 noundef 61, i64 noundef %18) #29
  %.not.i.i = icmp ne ptr %19, null
  %20 = ptrtoint ptr %19 to i64
  %21 = ptrtoint ptr %17 to i64
  %22 = sub i64 %20, %21
  %23 = trunc i64 %22 to i32
  %24 = icmp eq i32 %5, %23
  %or.cond.i.i = and i1 %.not.i.i, %24
  br i1 %or.cond.i.i, label %FLAC__metadata_object_vorbiscomment_entry_matches.exit.i, label %FLAC__metadata_object_vorbiscomment_entry_matches.exit.thread.i

FLAC__metadata_object_vorbiscomment_entry_matches.exit.i: ; preds = %13
  %25 = tail call i32 @strncasecmp(ptr noundef nonnull readonly %2, ptr noundef %17, i64 noundef %6) #29
  %.not.i = icmp eq i32 %25, 0
  br i1 %.not.i, label %._crit_edge.loopexit.split.loop.exit14.i, label %FLAC__metadata_object_vorbiscomment_entry_matches.exit.thread.i

FLAC__metadata_object_vorbiscomment_entry_matches.exit.thread.i: ; preds = %FLAC__metadata_object_vorbiscomment_entry_matches.exit.i, %13
  %indvars.iv.next.i = add nuw nsw i64 %indvars.iv.i, 1
  %lftr.wideiv.i = trunc i64 %indvars.iv.next.i to i32
  %exitcond.not.i = icmp eq i32 %8, %lftr.wideiv.i
  br i1 %exitcond.not.i, label %vorbiscomment_find_entry_from_.exit, label %13, !llvm.loop !91

._crit_edge.loopexit.split.loop.exit14.i:         ; preds = %FLAC__metadata_object_vorbiscomment_entry_matches.exit.i
  %26 = trunc nuw i64 %indvars.iv.i to i32
  br label %vorbiscomment_find_entry_from_.exit

vorbiscomment_find_entry_from_.exit:              ; preds = %FLAC__metadata_object_vorbiscomment_entry_matches.exit.thread.i, %3, %._crit_edge.loopexit.split.loop.exit14.i
  %.09.i = phi i32 [ -1, %3 ], [ %26, %._crit_edge.loopexit.split.loop.exit14.i ], [ -1, %FLAC__metadata_object_vorbiscomment_entry_matches.exit.thread.i ]
  ret i32 %.09.i
}